target datalayout = "e-m:e-p270:32:32-p271:32:32-p272:64:64-i64:64-i128:128-f80:128-n8:16:32:64-S128"
target triple = "x86_64-pc-linux-gnu"

%struct._packet_info = type { ptr, ptr, i32, i32, %struct.nstime_t, %struct.nstime_t, %struct.nstime_t, i8, ptr, ptr, ptr, ptr, %struct._address, %struct._address, %struct._address, %struct._address, %struct._address, %struct._address, i32, ptr, i8, [3 x i8], %struct.anon, i32, i32, i32, i32, ptr, i8, ptr, ptr, i16, i16, i32, i32, i16, i32, i32, ptr, ptr, ptr, i8, i8, i16, i16, i16, i32, i16, i16, ptr, ptr, ptr, ptr, ptr, i32, i32 }
%struct.nstime_t = type { i64, i32 }
%struct._address = type { i32, i32, ptr, ptr }
%struct.anon = type { i8, [3 x i8] }

@gbl_diameter_desegment = internal global i8 1, align 1
@data_handle = internal global ptr null, align 8
@.str.37 = private unnamed_addr constant [9 x i8] c"DIAMETER\00", align 1
@.str.81 = private unnamed_addr constant [13 x i8] c"Continuation\00", align 1

; Function Attrs: null_pointer_is_valid sspstrong uwtable
define internal i32 @check_diameter(ptr noundef %0) #0 {
  %2 = alloca i32, align 4
  %3 = alloca ptr, align 8
  %4 = alloca i8, align 1
  %5 = alloca i32, align 4
  %6 = alloca i32, align 4
  store ptr %0, ptr %3, align 8
  call void @llvm.lifetime.start.p0(i64 1, ptr %4) #14
  call void @llvm.lifetime.start.p0(i64 4, ptr %5) #14
  %7 = load ptr, ptr %3, align 8
  %8 = call i32 @tvb_captured_length(ptr noundef %7)
  %9 = icmp ult i32 %8, 5
  br i1 %9, label %10, label %11

10:                                               ; preds = %1
  store i32 2, ptr %2, align 4
  store i32 1, ptr %6, align 4
  br label %47

11:                                               ; preds = %1
  %12 = load ptr, ptr %3, align 8
  %13 = call zeroext i8 @tvb_get_uint8(ptr noundef %12, i32 noundef 0)
  %14 = zext i8 %13 to i32
  %15 = icmp ne i32 %14, 1
  br i1 %15, label %16, label %17

16:                                               ; preds = %11
  store i32 0, ptr %2, align 4
  store i32 1, ptr %6, align 4
  br label %47

17:                                               ; preds = %11
  %18 = load ptr, ptr %3, align 8
  %19 = call i32 @tvb_get_ntoh24(ptr noundef %18, i32 noundef 1)
  store i32 %19, ptr %5, align 4
  %20 = load i32, ptr %5, align 4
  %21 = icmp ult i32 %20, 36
  br i1 %21, label %26, label %22

22:                                               ; preds = %17
  %23 = load i32, ptr %5, align 4
  %24 = and i32 %23, 3
  %25 = icmp ne i32 %24, 0
  br i1 %25, label %26, label %27

26:                                               ; preds = %22, %17
  store i32 0, ptr %2, align 4
  store i32 1, ptr %6, align 4
  br label %47

27:                                               ; preds = %22
  %28 = load ptr, ptr %3, align 8
  %29 = call zeroext i8 @tvb_get_uint8(ptr noundef %28, i32 noundef 4)
  store i8 %29, ptr %4, align 1
  %30 = load i8, ptr %4, align 1
  %31 = zext i8 %30 to i32
  %32 = and i32 %31, 15
  %33 = icmp ne i32 %32, 0
  br i1 %33, label %34, label %35

34:                                               ; preds = %27
  store i32 0, ptr %2, align 4
  store i32 1, ptr %6, align 4
  br label %47

35:                                               ; preds = %27
  %36 = load i8, ptr %4, align 1
  %37 = zext i8 %36 to i32
  %38 = and i32 %37, 128
  %39 = icmp ne i32 %38, 0
  br i1 %39, label %40, label %46

40:                                               ; preds = %35
  %41 = load i8, ptr %4, align 1
  %42 = zext i8 %41 to i32
  %43 = and i32 %42, 32
  %44 = icmp ne i32 %43, 0
  br i1 %44, label %45, label %46

45:                                               ; preds = %40
  store i32 0, ptr %2, align 4
  store i32 1, ptr %6, align 4
  br label %47

46:                                               ; preds = %40, %35
  store i32 1, ptr %2, align 4
  store i32 1, ptr %6, align 4
  br label %47

47:                                               ; preds = %46, %45, %34, %26, %16, %10
  call void @llvm.lifetime.end.p0(i64 4, ptr %5) #14
  call void @llvm.lifetime.end.p0(i64 1, ptr %4) #14
  %48 = load i32, ptr %2, align 4
  ret i32 %48
}

; Function Attrs: null_pointer_is_valid sspstrong uwtable
define internal i32 @dissect_diameter_tcp(ptr noundef %0, ptr noundef %1, ptr noundef %2, ptr noundef %3) #0 {
  %5 = alloca ptr, align 8
  %6 = alloca ptr, align 8
  %7 = alloca ptr, align 8
  %8 = alloca ptr, align 8
  %9 = alloca i32, align 4
  store ptr %0, ptr %5, align 8
  store ptr %1, ptr %6, align 8
  store ptr %2, ptr %7, align 8
  store ptr %3, ptr %8, align 8
  call void @llvm.lifetime.start.p0(i64 4, ptr %9) #14
  %10 = load ptr, ptr %5, align 8
  %11 = call i32 @check_diameter(ptr noundef %10)
  store i32 %11, ptr %9, align 4
  %12 = load i32, ptr %9, align 4
  %13 = icmp eq i32 %12, 0
  br i1 %13, label %14, label %26

14:                                               ; preds = %4
  %15 = load ptr, ptr %6, align 8
  %16 = getelementptr inbounds nuw %struct._packet_info, ptr %15, i32 0, i32 1
  %17 = load ptr, ptr %16, align 8
  call void @col_set_str(ptr noundef %17, i32 noundef 35, ptr noundef @.str.37)
  %18 = load ptr, ptr %6, align 8
  %19 = getelementptr inbounds nuw %struct._packet_info, ptr %18, i32 0, i32 1
  %20 = load ptr, ptr %19, align 8
  call void @col_set_str(ptr noundef %20, i32 noundef 25, ptr noundef @.str.81)
  %21 = load ptr, ptr @data_handle, align 8
  %22 = load ptr, ptr %5, align 8
  %23 = load ptr, ptr %6, align 8
  %24 = load ptr, ptr %7, align 8
  %25 = call i32 @call_dissector(ptr noundef %21, ptr noundef %22, ptr noundef %23, ptr noundef %24)
  br label %42

26:                                               ; preds = %4
  %27 = load i32, ptr %9, align 4
  %28 = icmp eq i32 %27, 2
  br i1 %28, label %29, label %34

29:                                               ; preds = %26
  %30 = load ptr, ptr %6, align 8
  %31 = getelementptr inbounds nuw %struct._packet_info, ptr %30, i32 0, i32 33
  store i32 0, ptr %31, align 4
  %32 = load ptr, ptr %6, align 8
  %33 = getelementptr inbounds nuw %struct._packet_info, ptr %32, i32 0, i32 34
  store i32 268435455, ptr %33, align 8
  br label %41

34:                                               ; preds = %26
  %35 = load ptr, ptr %5, align 8
  %36 = load ptr, ptr %6, align 8
  %37 = load ptr, ptr %7, align 8
  %38 = load i8, ptr @gbl_diameter_desegment, align 1, !range !6, !noundef !7
  %39 = trunc i8 %38 to i1
  %40 = load ptr, ptr %8, align 8
  call void @tcp_dissect_pdus(ptr noundef %35, ptr noundef %36, ptr noundef %37, i1 noundef zeroext %39, i32 noundef 4, ptr noundef @get_diameter_pdu_len, ptr noundef @dissect_diameter_common, ptr noundef %40)
  br label %41

41:                                               ; preds = %34, %29
  br label %42

42:                                               ; preds = %41, %14
  %43 = load ptr, ptr %5, align 8
  %44 = call i32 @tvb_reported_length(ptr noundef %43)
  call void @llvm.lifetime.end.p0(i64 4, ptr %9) #14
  ret i32 %44
}