; Function Attrs: null_pointer_is_valid sspstrong uwtable
define internal i32 @dissect_diameter_tcp(ptr noundef %0, ptr noundef %1, ptr noundef %2, ptr noundef %3) #0 {
  %5 = tail call i32 @tvb_captured_length(ptr noundef %0)
  %6 = icmp ult i32 %5, 5
  br i1 %6, label %check_diameter.exit.thread15, label %7

7:                                                ; preds = %4
  %8 = tail call zeroext i8 @tvb_get_uint8(ptr noundef %0, i32 noundef 0)
  %.not.i = icmp eq i8 %8, 1
  br i1 %.not.i, label %9, label %check_diameter.exit.thread

9:                                                ; preds = %7
  %10 = tail call i32 @tvb_get_ntoh24(ptr noundef %0, i32 noundef 1)
  %11 = icmp ugt i32 %10, 35
  %12 = and i32 %10, 3
  %.not10.i = icmp eq i32 %12, 0
  %or.cond.i = and i1 %11, %.not10.i
  br i1 %or.cond.i, label %13, label %check_diameter.exit.thread

13:                                               ; preds = %9
  %14 = tail call zeroext i8 @tvb_get_uint8(ptr noundef %0, i32 noundef 4)
  %15 = zext i8 %14 to i32
  %16 = and i32 %15, 15
  %.not11.i = icmp eq i32 %16, 0
  br i1 %.not11.i, label %check_diameter.exit, label %check_diameter.exit.thread

check_diameter.exit:                              ; preds = %13
  %.not12.i = icmp slt i8 %14, 0
  %17 = and i32 %15, 32
  %.not13.i = icmp ne i32 %17, 0
  %or.cond14.i.not = and i1 %.not12.i, %.not13.i
  br i1 %or.cond14.i.not, label %check_diameter.exit.thread, label %25

check_diameter.exit.thread:                       ; preds = %check_diameter.exit, %13, %9, %7
  %18 = getelementptr inbounds nuw i8, ptr %1, i64 8
  %19 = load ptr, ptr %18, align 8
  tail call void @col_set_str(ptr noundef %19, i32 noundef 35, ptr noundef nonnull @.str.37)
  %20 = load ptr, ptr %18, align 8
  tail call void @col_set_str(ptr noundef %20, i32 noundef 25, ptr noundef nonnull @.str.81)
  %21 = load ptr, ptr @data_handle, align 8
  %22 = tail call i32 @call_dissector(ptr noundef %21, ptr noundef %0, ptr noundef %1, ptr noundef %2)
  br label %28

check_diameter.exit.thread15:                     ; preds = %4
  %23 = getelementptr inbounds nuw i8, ptr %1, i64 332
  store i32 0, ptr %23, align 4
  %24 = getelementptr inbounds nuw i8, ptr %1, i64 336
  store i32 268435455, ptr %24, align 8
  br label %28

25:                                               ; preds = %check_diameter.exit
  %26 = load i8, ptr @gbl_diameter_desegment, align 1, !range !6, !noundef !7
  %27 = trunc nuw i8 %26 to i1
  tail call void @tcp_dissect_pdus(ptr noundef %0, ptr noundef %1, ptr noundef %2, i1 noundef zeroext %27, i32 noundef 4, ptr noundef nonnull @get_diameter_pdu_len, ptr noundef nonnull @dissect_diameter_common, ptr noundef %3)
  br label %28

28:                                               ; preds = %check_diameter.exit.thread15, %25, %check_diameter.exit.thread
  %29 = tail call i32 @tvb_reported_length(ptr noundef %0)
  ret i32 %29
}